target datalayout = "e-m:e-p270:32:32-p271:32:32-p272:64:64-i64:64-i128:128-f80:128-n8:16:32:64-S128"
target triple = "x86_64-pc-linux-gnu"

%struct.stat = type { i64, i64, i64, i32, i32, i32, i32, i64, i64, i64, i64, %struct.timespec, %struct.timespec, %struct.timespec, [3 x i64] }
%struct.timespec = type { i64, i64 }

@.str.2 = private unnamed_addr constant [26 x i8] c"Parameter '%s' is invalid\00", align 1
@.str.3 = private unnamed_addr constant [5 x i8] c"file\00", align 1
@.str.4 = private unnamed_addr constant [5 x i8] c"mode\00", align 1
@.str.5 = private unnamed_addr constant [21 x i8] c"Couldn't open %s: %s\00", align 1
@.str.6 = private unnamed_addr constant [33 x i8] c"%s is not a regular file or pipe\00", align 1

; Function Attrs: nounwind uwtable
define internal zeroext i1 @IsRegularFileOrPipe(ptr noundef %0) #0 {
  %2 = alloca i1, align 1
  %3 = alloca ptr, align 8
  %4 = alloca %struct.stat, align 8
  %5 = alloca i32, align 4
  store ptr %0, ptr %3, align 8
  call void @llvm.lifetime.start.p0(i64 144, ptr %4) #11
  %6 = load ptr, ptr %3, align 8
  %7 = call i32 @fileno(ptr noundef %6) #11
  %8 = call i32 @fstat(i32 noundef %7, ptr noundef %4) #11
  %9 = icmp slt i32 %8, 0
  br i1 %9, label %20, label %10

10:                                               ; preds = %1
  %11 = getelementptr inbounds nuw %struct.stat, ptr %4, i32 0, i32 3
  %12 = load i32, ptr %11, align 8
  %13 = and i32 %12, 61440
  %14 = icmp eq i32 %13, 32768
  br i1 %14, label %21, label %15

15:                                               ; preds = %10
  %16 = getelementptr inbounds nuw %struct.stat, ptr %4, i32 0, i32 3
  %17 = load i32, ptr %16, align 8
  %18 = and i32 %17, 61440
  %19 = icmp eq i32 %18, 4096
  br i1 %19, label %21, label %20

20:                                               ; preds = %15, %1
  store i1 false, ptr %2, align 1
  store i32 1, ptr %5, align 4
  br label %22

21:                                               ; preds = %15, %10
  store i1 true, ptr %2, align 1
  store i32 1, ptr %5, align 4
  br label %22

22:                                               ; preds = %21, %20
  call void @llvm.lifetime.end.p0(i64 144, ptr %4) #11
  %23 = load i1, ptr %2, align 1
  ret i1 %23
}

; Function Attrs: nounwind uwtable
define hidden ptr @SDL_IOFromFile_REAL(ptr noundef %0, ptr noundef %1) #0 {
  %3 = alloca ptr, align 8
  %4 = alloca ptr, align 8
  %5 = alloca ptr, align 8
  %6 = alloca ptr, align 8
  %7 = alloca i32, align 4
  %8 = alloca ptr, align 8
  store ptr %0, ptr %4, align 8
  store ptr %1, ptr %5, align 8
  call void @llvm.lifetime.start.p0(i64 8, ptr %6) #11
  store ptr null, ptr %6, align 8
  %9 = load ptr, ptr %4, align 8
  %10 = icmp ne ptr %9, null
  br i1 %10, label %11, label %15

11:                                               ; preds = %2
  %12 = load ptr, ptr %4, align 8
  %13 = load i8, ptr %12, align 1
  %14 = icmp ne i8 %13, 0
  br i1 %14, label %17, label %15

15:                                               ; preds = %11, %2
  %16 = call zeroext i1 (ptr, ...) @SDL_SetError_REAL(ptr noundef @.str.2, ptr noundef @.str.3)
  store ptr null, ptr %3, align 8
  store i32 1, ptr %7, align 4
  br label %52

17:                                               ; preds = %11
  %18 = load ptr, ptr %5, align 8
  %19 = icmp ne ptr %18, null
  br i1 %19, label %20, label %24

20:                                               ; preds = %17
  %21 = load ptr, ptr %5, align 8
  %22 = load i8, ptr %21, align 1
  %23 = icmp ne i8 %22, 0
  br i1 %23, label %26, label %24

24:                                               ; preds = %20, %17
  %25 = call zeroext i1 (ptr, ...) @SDL_SetError_REAL(ptr noundef @.str.2, ptr noundef @.str.4)
  store ptr null, ptr %3, align 8
  store i32 1, ptr %7, align 4
  br label %52

26:                                               ; preds = %20
  call void @llvm.lifetime.start.p0(i64 8, ptr %8) #11
  %27 = load ptr, ptr %4, align 8
  %28 = load ptr, ptr %5, align 8
  %29 = call noalias ptr @fopen64(ptr noundef %27, ptr noundef %28)
  store ptr %29, ptr %8, align 8
  %30 = load ptr, ptr %8, align 8
  %31 = icmp ne ptr %30, null
  br i1 %31, label %38, label %32

32:                                               ; preds = %26
  %33 = load ptr, ptr %4, align 8
  %34 = call ptr @__errno_location() #13
  %35 = load i32, ptr %34, align 4
  %36 = call ptr @strerror(i32 noundef %35) #11
  %37 = call zeroext i1 (ptr, ...) @SDL_SetError_REAL(ptr noundef @.str.5, ptr noundef %33, ptr noundef %36)
  br label %50

38:                                               ; preds = %26
  %39 = load ptr, ptr %8, align 8
  %40 = call zeroext i1 @IsRegularFileOrPipe(ptr noundef %39)
  br i1 %40, label %46, label %41

41:                                               ; preds = %38
  %42 = load ptr, ptr %8, align 8
  %43 = call i32 @fclose(ptr noundef %42)
  store ptr null, ptr %8, align 8
  %44 = load ptr, ptr %4, align 8
  %45 = call zeroext i1 (ptr, ...) @SDL_SetError_REAL(ptr noundef @.str.6, ptr noundef %44)
  br label %49

46:                                               ; preds = %38
  %47 = load ptr, ptr %8, align 8
  %48 = call ptr @SDL_IOFromFP(ptr noundef %47, i1 noundef zeroext true)
  store ptr %48, ptr %6, align 8
  br label %49

49:                                               ; preds = %46, %41
  br label %50

50:                                               ; preds = %49, %32
  call void @llvm.lifetime.end.p0(i64 8, ptr %8) #11
  %51 = load ptr, ptr %6, align 8
  store ptr %51, ptr %3, align 8
  store i32 1, ptr %7, align 4
  br label %52

52:                                               ; preds = %50, %24, %15
  call void @llvm.lifetime.end.p0(i64 8, ptr %6) #11
  %53 = load ptr, ptr %3, align 8
  ret ptr %53
}