; Function Attrs: nounwind uwtable
define hidden noalias noundef ptr @SDL_IOFromFile_REAL(ptr noundef %0, ptr noundef readonly captures(address_is_null) %1) local_unnamed_addr #0 {
  %3 = alloca %struct.stat, align 8
  %.not = icmp eq ptr %0, null
  br i1 %.not, label %6, label %4

4:                                                ; preds = %2
  %5 = load i8, ptr %0, align 1
  %.not18 = icmp eq i8 %5, 0
  br i1 %.not18, label %6, label %8

6:                                                ; preds = %4, %2
  %7 = tail call zeroext i1 (ptr, ...) @SDL_SetError_REAL(ptr noundef nonnull @.str.2, ptr noundef nonnull @.str.3) #18
  br label %32

8:                                                ; preds = %4
  %.not19 = icmp eq ptr %1, null
  br i1 %.not19, label %11, label %9

9:                                                ; preds = %8
  %10 = load i8, ptr %1, align 1
  %.not20 = icmp eq i8 %10, 0
  br i1 %.not20, label %11, label %13

11:                                               ; preds = %9, %8
  %12 = tail call zeroext i1 (ptr, ...) @SDL_SetError_REAL(ptr noundef nonnull @.str.2, ptr noundef nonnull @.str.4) #18
  br label %32

13:                                               ; preds = %9
  %14 = tail call noalias ptr @fopen64(ptr noundef nonnull %0, ptr noundef nonnull %1)
  %.not21 = icmp eq ptr %14, null
  br i1 %.not21, label %15, label %20

15:                                               ; preds = %13
  %16 = tail call ptr @__errno_location() #19
  %17 = load i32, ptr %16, align 4
  %18 = tail call ptr @strerror(i32 noundef %17) #18
  %19 = tail call zeroext i1 (ptr, ...) @SDL_SetError_REAL(ptr noundef nonnull @.str.5, ptr noundef nonnull %0, ptr noundef %18) #18
  br label %32

20:                                               ; preds = %13
  call void @llvm.lifetime.start.p0(i64 144, ptr nonnull %3) #18
  %21 = tail call i32 @fileno(ptr noundef nonnull %14) #18
  %22 = call i32 @fstat(i32 noundef %21, ptr noundef nonnull %3) #18
  %23 = icmp slt i32 %22, 0
  br i1 %23, label %IsRegularFileOrPipe.exit.thread, label %IsRegularFileOrPipe.exit

IsRegularFileOrPipe.exit.thread:                  ; preds = %20
  call void @llvm.lifetime.end.p0(i64 144, ptr nonnull %3) #18
  br label %27

IsRegularFileOrPipe.exit:                         ; preds = %20
  %24 = getelementptr inbounds nuw i8, ptr %3, i64 24
  %25 = load i32, ptr %24, align 8
  call void @llvm.lifetime.end.p0(i64 144, ptr nonnull %3) #18
  %26 = trunc i32 %25 to i16
  %trunc = and i16 %26, -4096
  switch i16 %trunc, label %27 [
    i16 -32768, label %30
    i16 4096, label %30
  ]

27:                                               ; preds = %IsRegularFileOrPipe.exit, %IsRegularFileOrPipe.exit.thread
  %28 = tail call i32 @fclose(ptr noundef nonnull %14)
  %29 = tail call zeroext i1 (ptr, ...) @SDL_SetError_REAL(ptr noundef nonnull @.str.6, ptr noundef nonnull %0) #18
  br label %32

30:                                               ; preds = %IsRegularFileOrPipe.exit, %IsRegularFileOrPipe.exit
  %31 = tail call ptr @SDL_IOFromFP(ptr noundef nonnull %14, i1 noundef zeroext true)
  br label %32

32:                                               ; preds = %15, %30, %27, %11, %6
  %.014 = phi ptr [ null, %11 ], [ null, %6 ], [ %31, %30 ], [ null, %27 ], [ null, %15 ]
  ret ptr %.014
}